(dp0
S'learning_rate_init'
p1
F0.06
sS'random_state'
p2
I1
sS'solver'
p3
S'sgd'
p4
sS'verbose'
p5
I00
sS'tol'
p6
F0.0001
sS'hidden_layer_sizes'
p7
(cnumpy.core.multiarray
scalar
p8
(cnumpy
dtype
p9
(S'i8'
p10
I0
I1
tp11
Rp12
(I3
S'<'
p13
NNNI-1
I-1
I0
tp14
bS'F\x00\x00\x00\x00\x00\x00\x00'
p15
tp16
Rp17
g8
(g12
S'F\x00\x00\x00\x00\x00\x00\x00'
p18
tp19
Rp20
tp21
sS'alpha'
p22
F0.0001
sS'activation'
p23
S'relu'
p24
sS'max_iter'
p25
I100
sS'momentum'
p26
F0.9
s.